; Function Attrs: inlinehint mustprogress nounwind uwtable
define internal void @_ZN7rocksdb12_GLOBAL__N_117LegacySystemClockD0Ev(ptr noundef nonnull align 8 dereferenceable(40) initializes((0, 8)) %0) unnamed_addr #18 align 2 personality ptr @__gxx_personality_v0 {
  store ptr getelementptr inbounds nuw inrange(-16, 112) (i8, ptr @_ZTVN7rocksdb12ConfigurableE, i64 16), ptr %0, align 8, !tbaa !18
  %2 = getelementptr inbounds nuw i8, ptr %0, i64 8
  %3 = load ptr, ptr %2, align 8, !tbaa !65
  %4 = getelementptr inbounds nuw i8, ptr %0, i64 16
  %5 = load ptr, ptr %4, align 8, !tbaa !66
  %.not4.i.i.i.i.i = icmp eq ptr %3, %5
  br i1 %.not4.i.i.i.i.i, label %_ZSt8_DestroyIPN7rocksdb12Configurable17RegisteredOptionsES2_EvT_S4_RSaIT0_E.exit.i.i, label %.lr.ph.i.i.i.i.i

.lr.ph.i.i.i.i.i:                                 ; preds = %1, %_ZSt8_DestroyIN7rocksdb12Configurable17RegisteredOptionsEEvPT_.exit.i.i.i.i.i
  %.05.i.i.i.i.i = phi ptr [ %14, %_ZSt8_DestroyIN7rocksdb12Configurable17RegisteredOptionsEEvPT_.exit.i.i.i.i.i ], [ %3, %1 ]
  %6 = load ptr, ptr %.05.i.i.i.i.i, align 8, !tbaa !11
  %7 = getelementptr inbounds nuw i8, ptr %.05.i.i.i.i.i, i64 16
  %8 = icmp eq ptr %6, %7
  br i1 %8, label %_ZNKSt7__cxx1112basic_stringIcSt11char_traitsIcESaIcEE11_M_is_localEv.exit.thread.i.i.i.i.i.i.i.i.i, label %_ZNKSt7__cxx1112basic_stringIcSt11char_traitsIcESaIcEE11_M_is_localEv.exit.i.i.i.i.i.i.i.i.i

_ZNKSt7__cxx1112basic_stringIcSt11char_traitsIcESaIcEE11_M_is_localEv.exit.thread.i.i.i.i.i.i.i.i.i: ; preds = %.lr.ph.i.i.i.i.i
  %9 = getelementptr inbounds nuw i8, ptr %.05.i.i.i.i.i, i64 8
  %10 = load i64, ptr %9, align 8, !tbaa !16
  %11 = icmp ult i64 %10, 16
  tail call void @llvm.assume(i1 %11)
  br label %_ZSt8_DestroyIN7rocksdb12Configurable17RegisteredOptionsEEvPT_.exit.i.i.i.i.i

_ZNKSt7__cxx1112basic_stringIcSt11char_traitsIcESaIcEE11_M_is_localEv.exit.i.i.i.i.i.i.i.i.i: ; preds = %.lr.ph.i.i.i.i.i
  %12 = load i64, ptr %7, align 8, !tbaa !17
  %13 = add i64 %12, 1
  tail call void @_ZdlPvm(ptr noundef %6, i64 noundef %13) #35
  br label %_ZSt8_DestroyIN7rocksdb12Configurable17RegisteredOptionsEEvPT_.exit.i.i.i.i.i

_ZSt8_DestroyIN7rocksdb12Configurable17RegisteredOptionsEEvPT_.exit.i.i.i.i.i: ; preds = %_ZNKSt7__cxx1112basic_stringIcSt11char_traitsIcESaIcEE11_M_is_localEv.exit.i.i.i.i.i.i.i.i.i, %_ZNKSt7__cxx1112basic_stringIcSt11char_traitsIcESaIcEE11_M_is_localEv.exit.thread.i.i.i.i.i.i.i.i.i
  %14 = getelementptr inbounds nuw i8, ptr %.05.i.i.i.i.i, i64 48
  %.not.i.i.i.i.i = icmp eq ptr %14, %5
  br i1 %.not.i.i.i.i.i, label %_ZSt8_DestroyIPN7rocksdb12Configurable17RegisteredOptionsES2_EvT_S4_RSaIT0_E.exitthread-pre-split.i.i, label %.lr.ph.i.i.i.i.i, !llvm.loop !67

_ZSt8_DestroyIPN7rocksdb12Configurable17RegisteredOptionsES2_EvT_S4_RSaIT0_E.exitthread-pre-split.i.i: ; preds = %_ZSt8_DestroyIN7rocksdb12Configurable17RegisteredOptionsEEvPT_.exit.i.i.i.i.i
  %.pr.i.i = load ptr, ptr %2, align 8, !tbaa !65
  br label %_ZSt8_DestroyIPN7rocksdb12Configurable17RegisteredOptionsES2_EvT_S4_RSaIT0_E.exit.i.i

_ZSt8_DestroyIPN7rocksdb12Configurable17RegisteredOptionsES2_EvT_S4_RSaIT0_E.exit.i.i: ; preds = %_ZSt8_DestroyIPN7rocksdb12Configurable17RegisteredOptionsES2_EvT_S4_RSaIT0_E.exitthread-pre-split.i.i, %1
  %15 = phi ptr [ %.pr.i.i, %_ZSt8_DestroyIPN7rocksdb12Configurable17RegisteredOptionsES2_EvT_S4_RSaIT0_E.exitthread-pre-split.i.i ], [ %3, %1 ]
  %.not.i.i.i.i = icmp eq ptr %15, null
  br i1 %.not.i.i.i.i, label %_ZN7rocksdb12ConfigurableD2Ev.exit, label %16

16:                                               ; preds = %_ZSt8_DestroyIPN7rocksdb12Configurable17RegisteredOptionsES2_EvT_S4_RSaIT0_E.exit.i.i
  %17 = getelementptr inbounds nuw i8, ptr %0, i64 24
  %18 = load ptr, ptr %17, align 8, !tbaa !69
  %19 = ptrtoint ptr %18 to i64
  %20 = ptrtoint ptr %15 to i64
  %21 = sub i64 %19, %20
  tail call void @_ZdlPvm(ptr noundef nonnull %15, i64 noundef %21) #35
  br label %_ZN7rocksdb12ConfigurableD2Ev.exit

_ZN7rocksdb12ConfigurableD2Ev.exit:               ; preds = %_ZSt8_DestroyIPN7rocksdb12Configurable17RegisteredOptionsES2_EvT_S4_RSaIT0_E.exit.i.i, %16
  tail call void @_ZdlPvm(ptr noundef nonnull %0, i64 noundef 40) #35
  ret void
}